target datalayout = "e-m:e-p270:32:32-p271:32:32-p272:64:64-i64:64-i128:128-f80:128-n8:16:32:64-S128"
target triple = "x86_64-pc-linux-gnu"

; Function Attrs: alwaysinline nounwind willreturn memory(none) uwtable
define internal i32 @av_clip_uintp2_c(i32 noundef %0, i32 noundef %1) #3 {
  %3 = alloca i32, align 4
  %4 = alloca i32, align 4
  %5 = alloca i32, align 4
  store i32 %0, ptr %4, align 4, !tbaa !19
  store i32 %1, ptr %5, align 4, !tbaa !19
  %6 = load i32, ptr %4, align 4, !tbaa !19
  %7 = load i32, ptr %5, align 4, !tbaa !19
  %8 = shl i32 1, %7
  %9 = sub i32 %8, 1
  %10 = xor i32 %9, -1
  %11 = and i32 %6, %10
  %12 = icmp ne i32 %11, 0
  br i1 %12, label %13, label %21

13:                                               ; preds = %2
  %14 = load i32, ptr %4, align 4, !tbaa !19
  %15 = xor i32 %14, -1
  %16 = ashr i32 %15, 31
  %17 = load i32, ptr %5, align 4, !tbaa !19
  %18 = shl i32 1, %17
  %19 = sub i32 %18, 1
  %20 = and i32 %16, %19
  store i32 %20, ptr %3, align 4
  br label %23

21:                                               ; preds = %2
  %22 = load i32, ptr %4, align 4, !tbaa !19
  store i32 %22, ptr %3, align 4
  br label %23

23:                                               ; preds = %21, %13
  %24 = load i32, ptr %3, align 4
  ret i32 %24
}

; Function Attrs: nounwind uwtable
define internal void @tm_8x8_c(ptr noundef %0, i64 noundef %1, ptr noundef %2, ptr noundef %3) #1 {
  %5 = alloca ptr, align 8
  %6 = alloca i64, align 8
  %7 = alloca ptr, align 8
  %8 = alloca ptr, align 8
  %9 = alloca ptr, align 8
  %10 = alloca ptr, align 8
  %11 = alloca ptr, align 8
  %12 = alloca i32, align 4
  %13 = alloca i32, align 4
  %14 = alloca i32, align 4
  store ptr %0, ptr %5, align 8, !tbaa !10
  store i64 %1, ptr %6, align 8, !tbaa !12
  store ptr %2, ptr %7, align 8, !tbaa !10
  store ptr %3, ptr %8, align 8, !tbaa !10
  call void @llvm.lifetime.start.p0(i64 8, ptr %9) #9
  %15 = load ptr, ptr %5, align 8, !tbaa !10
  store ptr %15, ptr %9, align 8, !tbaa !14
  call void @llvm.lifetime.start.p0(i64 8, ptr %10) #9
  %16 = load ptr, ptr %7, align 8, !tbaa !10
  store ptr %16, ptr %10, align 8, !tbaa !14
  call void @llvm.lifetime.start.p0(i64 8, ptr %11) #9
  %17 = load ptr, ptr %8, align 8, !tbaa !10
  store ptr %17, ptr %11, align 8, !tbaa !14
  call void @llvm.lifetime.start.p0(i64 4, ptr %12) #9
  call void @llvm.lifetime.start.p0(i64 4, ptr %13) #9
  %18 = load ptr, ptr %11, align 8, !tbaa !14
  %19 = getelementptr inbounds i16, ptr %18, i64 -1
  %20 = load i16, ptr %19, align 2, !tbaa !17
  %21 = zext i16 %20 to i32
  store i32 %21, ptr %13, align 4, !tbaa !19
  %22 = load i64, ptr %6, align 8, !tbaa !12
  %23 = udiv i64 %22, 2
  store i64 %23, ptr %6, align 8, !tbaa !12
  store i32 0, ptr %12, align 4, !tbaa !19
  br label %24

24:                                               ; preds = %120, %4
  %25 = load i32, ptr %12, align 4, !tbaa !19
  %26 = icmp slt i32 %25, 8
  br i1 %26, label %27, label %123

27:                                               ; preds = %24
  call void @llvm.lifetime.start.p0(i64 4, ptr %14) #9
  %28 = load ptr, ptr %10, align 8, !tbaa !14
  %29 = load i32, ptr %12, align 4, !tbaa !19
  %30 = sub nsw i32 7, %29
  %31 = sext i32 %30 to i64
  %32 = getelementptr inbounds i16, ptr %28, i64 %31
  %33 = load i16, ptr %32, align 2, !tbaa !17
  %34 = zext i16 %33 to i32
  %35 = load i32, ptr %13, align 4, !tbaa !19
  %36 = sub nsw i32 %34, %35
  store i32 %36, ptr %14, align 4, !tbaa !19
  %37 = load ptr, ptr %11, align 8, !tbaa !14
  %38 = getelementptr inbounds i16, ptr %37, i64 0
  %39 = load i16, ptr %38, align 2, !tbaa !17
  %40 = zext i16 %39 to i32
  %41 = load i32, ptr %14, align 4, !tbaa !19
  %42 = add nsw i32 %40, %41
  %43 = call i32 @av_clip_uintp2_c(i32 noundef %42, i32 noundef 10) #10
  %44 = trunc i32 %43 to i16
  %45 = load ptr, ptr %9, align 8, !tbaa !14
  %46 = getelementptr inbounds i16, ptr %45, i64 0
  store i16 %44, ptr %46, align 2, !tbaa !17
  %47 = load ptr, ptr %11, align 8, !tbaa !14
  %48 = getelementptr inbounds i16, ptr %47, i64 1
  %49 = load i16, ptr %48, align 2, !tbaa !17
  %50 = zext i16 %49 to i32
  %51 = load i32, ptr %14, align 4, !tbaa !19
  %52 = add nsw i32 %50, %51
  %53 = call i32 @av_clip_uintp2_c(i32 noundef %52, i32 noundef 10) #10
  %54 = trunc i32 %53 to i16
  %55 = load ptr, ptr %9, align 8, !tbaa !14
  %56 = getelementptr inbounds i16, ptr %55, i64 1
  store i16 %54, ptr %56, align 2, !tbaa !17
  %57 = load ptr, ptr %11, align 8, !tbaa !14
  %58 = getelementptr inbounds i16, ptr %57, i64 2
  %59 = load i16, ptr %58, align 2, !tbaa !17
  %60 = zext i16 %59 to i32
  %61 = load i32, ptr %14, align 4, !tbaa !19
  %62 = add nsw i32 %60, %61
  %63 = call i32 @av_clip_uintp2_c(i32 noundef %62, i32 noundef 10) #10
  %64 = trunc i32 %63 to i16
  %65 = load ptr, ptr %9, align 8, !tbaa !14
  %66 = getelementptr inbounds i16, ptr %65, i64 2
  store i16 %64, ptr %66, align 2, !tbaa !17
  %67 = load ptr, ptr %11, align 8, !tbaa !14
  %68 = getelementptr inbounds i16, ptr %67, i64 3
  %69 = load i16, ptr %68, align 2, !tbaa !17
  %70 = zext i16 %69 to i32
  %71 = load i32, ptr %14, align 4, !tbaa !19
  %72 = add nsw i32 %70, %71
  %73 = call i32 @av_clip_uintp2_c(i32 noundef %72, i32 noundef 10) #10
  %74 = trunc i32 %73 to i16
  %75 = load ptr, ptr %9, align 8, !tbaa !14
  %76 = getelementptr inbounds i16, ptr %75, i64 3
  store i16 %74, ptr %76, align 2, !tbaa !17
  %77 = load ptr, ptr %11, align 8, !tbaa !14
  %78 = getelementptr inbounds i16, ptr %77, i64 4
  %79 = load i16, ptr %78, align 2, !tbaa !17
  %80 = zext i16 %79 to i32
  %81 = load i32, ptr %14, align 4, !tbaa !19
  %82 = add nsw i32 %80, %81
  %83 = call i32 @av_clip_uintp2_c(i32 noundef %82, i32 noundef 10) #10
  %84 = trunc i32 %83 to i16
  %85 = load ptr, ptr %9, align 8, !tbaa !14
  %86 = getelementptr inbounds i16, ptr %85, i64 4
  store i16 %84, ptr %86, align 2, !tbaa !17
  %87 = load ptr, ptr %11, align 8, !tbaa !14
  %88 = getelementptr inbounds i16, ptr %87, i64 5
  %89 = load i16, ptr %88, align 2, !tbaa !17
  %90 = zext i16 %89 to i32
  %91 = load i32, ptr %14, align 4, !tbaa !19
  %92 = add nsw i32 %90, %91
  %93 = call i32 @av_clip_uintp2_c(i32 noundef %92, i32 noundef 10) #10
  %94 = trunc i32 %93 to i16
  %95 = load ptr, ptr %9, align 8, !tbaa !14
  %96 = getelementptr inbounds i16, ptr %95, i64 5
  store i16 %94, ptr %96, align 2, !tbaa !17
  %97 = load ptr, ptr %11, align 8, !tbaa !14
  %98 = getelementptr inbounds i16, ptr %97, i64 6
  %99 = load i16, ptr %98, align 2, !tbaa !17
  %100 = zext i16 %99 to i32
  %101 = load i32, ptr %14, align 4, !tbaa !19
  %102 = add nsw i32 %100, %101
  %103 = call i32 @av_clip_uintp2_c(i32 noundef %102, i32 noundef 10) #10
  %104 = trunc i32 %103 to i16
  %105 = load ptr, ptr %9, align 8, !tbaa !14
  %106 = getelementptr inbounds i16, ptr %105, i64 6
  store i16 %104, ptr %106, align 2, !tbaa !17
  %107 = load ptr, ptr %11, align 8, !tbaa !14
  %108 = getelementptr inbounds i16, ptr %107, i64 7
  %109 = load i16, ptr %108, align 2, !tbaa !17
  %110 = zext i16 %109 to i32
  %111 = load i32, ptr %14, align 4, !tbaa !19
  %112 = add nsw i32 %110, %111
  %113 = call i32 @av_clip_uintp2_c(i32 noundef %112, i32 noundef 10) #10
  %114 = trunc i32 %113 to i16
  %115 = load ptr, ptr %9, align 8, !tbaa !14
  %116 = getelementptr inbounds i16, ptr %115, i64 7
  store i16 %114, ptr %116, align 2, !tbaa !17
  %117 = load i64, ptr %6, align 8, !tbaa !12
  %118 = load ptr, ptr %9, align 8, !tbaa !14
  %119 = getelementptr inbounds i16, ptr %118, i64 %117
  store ptr %119, ptr %9, align 8, !tbaa !14
  call void @llvm.lifetime.end.p0(i64 4, ptr %14) #9
  br label %120

120:                                              ; preds = %27
  %121 = load i32, ptr %12, align 4, !tbaa !19
  %122 = add nsw i32 %121, 1
  store i32 %122, ptr %12, align 4, !tbaa !19
  br label %24, !llvm.loop !42

123:                                              ; preds = %24
  call void @llvm.lifetime.end.p0(i64 4, ptr %13) #9
  call void @llvm.lifetime.end.p0(i64 4, ptr %12) #9
  call void @llvm.lifetime.end.p0(i64 8, ptr %11) #9
  call void @llvm.lifetime.end.p0(i64 8, ptr %10) #9
  call void @llvm.lifetime.end.p0(i64 8, ptr %9) #9
  ret void
}